target datalayout = "e-m:e-p270:32:32-p271:32:32-p272:64:64-i64:64-i128:128-f80:128-n8:16:32:64-S128"
target triple = "x86_64-pc-linux-gnu"

@hf_dvbci_auth_proto_id = internal global i32 0, align 4
@hf_dvbci_auth_req_bytes = internal global i32 0, align 4
@hf_dvbci_auth_resp_bytes = internal global i32 0, align 4

; Function Attrs: null_pointer_is_valid sspstrong uwtable
define internal void @dissect_dvbci_payload_aut(i32 noundef %0, i32 noundef %1, ptr noundef %2, i32 noundef %3, ptr noundef %4, ptr noundef %5, ptr noundef %6) #0 {
  %8 = alloca i32, align 4
  %9 = alloca i32, align 4
  %10 = alloca ptr, align 8
  %11 = alloca i32, align 4
  %12 = alloca ptr, align 8
  %13 = alloca ptr, align 8
  %14 = alloca ptr, align 8
  %15 = alloca i32, align 4
  %16 = alloca i32, align 4
  store i32 %0, ptr %8, align 4
  store i32 %1, ptr %9, align 4
  store ptr %2, ptr %10, align 8
  store i32 %3, ptr %11, align 4
  store ptr %4, ptr %12, align 8
  store ptr %5, ptr %13, align 8
  store ptr %6, ptr %14, align 8
  call void @llvm.lifetime.start.p0(i64 4, ptr %15) #11
  %17 = load ptr, ptr %14, align 8
  %18 = load i32, ptr @hf_dvbci_auth_proto_id, align 4
  %19 = load ptr, ptr %10, align 8
  %20 = load i32, ptr %11, align 4
  %21 = call ptr @proto_tree_add_item(ptr noundef %17, i32 noundef %18, ptr noundef %19, i32 noundef %20, i32 noundef 2, i32 noundef 0)
  %22 = load i32, ptr %11, align 4
  %23 = add i32 %22, 2
  store i32 %23, ptr %11, align 4
  %24 = load ptr, ptr %10, align 8
  %25 = load i32, ptr %11, align 4
  %26 = call i32 @tvb_reported_length_remaining(ptr noundef %24, i32 noundef %25)
  store i32 %26, ptr %15, align 4
  %27 = load i32, ptr %15, align 4
  %28 = icmp sle i32 %27, 0
  br i1 %28, label %29, label %30

29:                                               ; preds = %7
  store i32 1, ptr %16, align 4
  br label %52

30:                                               ; preds = %7
  %31 = load i32, ptr %8, align 4
  %32 = icmp eq i32 %31, 10453504
  br i1 %32, label %33, label %40

33:                                               ; preds = %30
  %34 = load ptr, ptr %14, align 8
  %35 = load i32, ptr @hf_dvbci_auth_req_bytes, align 4
  %36 = load ptr, ptr %10, align 8
  %37 = load i32, ptr %11, align 4
  %38 = load i32, ptr %15, align 4
  %39 = call ptr @proto_tree_add_item(ptr noundef %34, i32 noundef %35, ptr noundef %36, i32 noundef %37, i32 noundef %38, i32 noundef 0)
  br label %51

40:                                               ; preds = %30
  %41 = load i32, ptr %8, align 4
  %42 = icmp eq i32 %41, 10453505
  br i1 %42, label %43, label %50

43:                                               ; preds = %40
  %44 = load ptr, ptr %14, align 8
  %45 = load i32, ptr @hf_dvbci_auth_resp_bytes, align 4
  %46 = load ptr, ptr %10, align 8
  %47 = load i32, ptr %11, align 4
  %48 = load i32, ptr %15, align 4
  %49 = call ptr @proto_tree_add_item(ptr noundef %44, i32 noundef %45, ptr noundef %46, i32 noundef %47, i32 noundef %48, i32 noundef 0)
  br label %50

50:                                               ; preds = %43, %40
  br label %51

51:                                               ; preds = %50, %33
  store i32 0, ptr %16, align 4
  br label %52

52:                                               ; preds = %51, %29
  call void @llvm.lifetime.end.p0(i64 4, ptr %15) #11
  %53 = load i32, ptr %16, align 4
  switch i32 %53, label %55 [
    i32 0, label %54
    i32 1, label %54
  ]

54:                                               ; preds = %52, %52
  ret void

55:                                               ; preds = %52
  unreachable
}