; Function Attrs: null_pointer_is_valid sspstrong uwtable
define internal void @dissect_dvbci_payload_aut(i32 noundef %0, i32 %1, ptr noundef %2, i32 noundef %3, ptr readnone captures(none) %4, ptr readnone captures(none) %5, ptr noundef %6) #1 {
  %8 = load i32, ptr @hf_dvbci_auth_proto_id, align 4
  %9 = tail call ptr @proto_tree_add_item(ptr noundef %6, i32 noundef %8, ptr noundef %2, i32 noundef %3, i32 noundef 2, i32 noundef 0)
  %10 = add i32 %3, 2
  %11 = tail call i32 @tvb_reported_length_remaining(ptr noundef %2, i32 noundef %10)
  %12 = icmp slt i32 %11, 1
  br i1 %12, label %17, label %13

13:                                               ; preds = %7
  switch i32 %0, label %17 [
    i32 10453504, label %.sink.split
    i32 10453505, label %14
  ]

14:                                               ; preds = %13
  br label %.sink.split

.sink.split:                                      ; preds = %13, %14
  %hf_dvbci_auth_req_bytes.sink = phi ptr [ @hf_dvbci_auth_resp_bytes, %14 ], [ @hf_dvbci_auth_req_bytes, %13 ]
  %15 = load i32, ptr %hf_dvbci_auth_req_bytes.sink, align 4
  %16 = tail call ptr @proto_tree_add_item(ptr noundef %6, i32 noundef %15, ptr noundef %2, i32 noundef %10, i32 noundef %11, i32 noundef 0)
  br label %17

17:                                               ; preds = %.sink.split, %13, %7
  ret void
}